Certificate:
    Data:
        Version: 3 (0x2)
        Serial Number: 1 (0x1)
        Signature Algorithm: md5WithRSAEncryption
        Issuer: C=US, ST=CA, L=SanFrancisco, O=Fort-Funston, CN=Fort-Funston CA/emailAddress=me@myhost.mydomain
        Validity
            Not Before: Mar 25 19:46:22 2008 GMT
            Not After : Mar 23 19:46:22 2018 GMT
        Subject: C=US, ST=CA, L=SanFrancisco, O=Fort-Funston, CN=key1/emailAddress=me@myhost.mydomain
        Subject Public Key Info:
            Public Key Algorithm: rsaEncryption
            RSA Public Key: (1024 bit)
                Modulus (1024 bit):
                    00:da:f8:99:11:71:46:9f:72:59:bb:35:05:90:8b:
                    55:a8:97:ff:52:0b:1e:ac:a7:3c:31:36:3b:ad:f2:
                    40:b5:a7:e9:86:0d:a9:df:68:d3:9d:d0:a0:5a:d9:
                    61:36:78:dd:25:92:13:23:96:81:8b:11:d7:bd:26:
                    87:79:4c:09:6c:1a:5c:eb:dd:b5:a2:00:3f:a1:9b:
                    dc:42:69:c9:43:40:b9:79:34:ff:ce:ae:6a:dc:57:
                    bc:e4:e4:28:23:35:9b:a5:99:ab:80:18:82:1e:75:
                    dd:13:7f:a7:00:4a:6a:36:fe:90:bd:a7:22:ff:19:
                    f1:84:df:66:3a:e3:87:02:71
                Exponent: 65537 (0x10001)
        X509v3 extensions:
            X509v3 Basic Constraints: 
                CA:FALSE
            Netscape Comment: 
                OpenSSL Generated Certificate
            X509v3 Subject Key Identifier: 
                D7:79:BB:07:A7:69:08:CA:8D:31:1F:87:FC:D3:40:01:AE:71:98:BA
            X509v3 Authority Key Identifier: 
                keyid:1E:6F:B3:6D:0B:13:76:46:4F:AE:8E:E5:93:88:9F:EA:1F:FB:4C:C7
                DirName:/C=US/ST=CA/L=SanFrancisco/O=Fort-Funston/CN=Fort-Funston CA/emailAddress=me@myhost.mydomain
                serial:B9:1E:71:54:53:1B:0C:53

    Signature Algorithm: md5WithRSAEncryption
        2c:03:54:f6:8e:cd:48:35:88:55:25:20:b0:b5:58:e2:04:73:
        e4:ce:08:df:00:f1:7d:36:be:dc:b8:ac:36:dd:04:7b:41:13:
        11:cc:6d:e7:6b:a7:18:97:7b:5b:94:77:78:a2:ed:5b:1d:da:
        4c:b1:77:23:34:e7:05:57:57:ba:a9:58:c2:5d:d2:1b:ce:d2:
        e6:b8:52:6f:4d:aa:17:d6:9b:0d:d5:8f:6e:c4:ca:1b:e2:00:
        a8:2a:39:2c:e5:00:96:7b:f0:2c:d7:cb:3d:cc:95:64:df:f0:
        bb:56:45:99:5e:43:05:f9:9e:d6:25:90:04:0f:ae:40:f0:7f:
        86:96
-----BEGIN CERTIFICATE-----
MIIDkTCCAvqgAwIBAgIBATANBgkqhkiG9w0BAQQFADCBhTELMAkGA1UEBhMCVVMx
CzAJBgNVBAgTAkNBMRUwEwYDVQQHEwxTYW5GcmFuY2lzY28xFTATBgNVBAoTDEZv
cnQtRnVuc3RvbjEYMBYGA1UEAxMPRm9ydC1GdW5zdG9uIENBMSEwHwYJKoZIhvcN
AQkBFhJtZUBteWhvc3QubXlkb21haW4wHhcNMDgwMzI1MTk0NjIyWhcNMTgwMzIz
MTk0NjIyWjB6MQswCQYDVQQGEwJVUzELMAkGA1UECBMCQ0ExFTATBgNVBAcTDFNh
bkZyYW5jaXNjbzEVMBMGA1UEChMMRm9ydC1GdW5zdG9uMQ0wCwYDVQQDEwRrZXkx
MSEwHwYJKoZIhvcNAQkBFhJtZUBteWhvc3QubXlkb21haW4wgZ8wDQYJKoZIhvcN
AQEBBQADgY0AMIGJAoGBANr4mRFxRp9yWbs1BZCLVaiX/1ILHqynPDE2O63yQLWn
6YYNqd9o053QoFrZYTZ43SWSEyOWgYsR170mh3lMCWwaXOvdtaIAP6Gb3EJpyUNA
uXk0/86uatxXvOTkKCM1m6WZq4AYgh513RN/pwBKajb+kL2nIv8Z8YTfZjrjhwJx
AgMBAAGjggEZMIIBFTAJBgNVHRMEAjAAMCwGCWCGSAGG+EIBDQQfFh1PcGVuU1NM
IEdlbmVyYXRlZCBDZXJ0aWZpY2F0ZTAdBgNVHQ4EFgQU13m7B6dpCMqNMR+H/NNA
Aa5xmLowgboGA1UdIwSBsjCBr4AUHm+zbQsTdkZPro7lk4if6h/7TMehgYukgYgw
gYUxCzAJBgNVBAYTAlVTMQswCQYDVQQIEwJDQTEVMBMGA1UEBxMMU2FuRnJhbmNp
c2NvMRUwEwYDVQQKEwxGb3J0LUZ1bnN0b24xGDAWBgNVBAMTD0ZvcnQtRnVuc3Rv
biBDQTEhMB8GCSqGSIb3DQEJARYSbWVAbXlob3N0Lm15ZG9tYWluggkAuR5xVFMb
DFMwDQYJKoZIhvcNAQEEBQADgYEALANU9o7NSDWIVSUgsLVY4gRz5M4I3wDxfTa+
3LisNt0Ee0ETEcxt52unGJd7W5R3eKLtWx3aTLF3IzTnBVdXuqlYwl3SG87S5rhS
b02qF9abDdWPbsTKG+IAqCo5LOUAlnvwLNfLPcyVZN/wu1ZFmV5DBfme1iWQBA+u
QPB/hpY=
-----END CERTIFICATE-----
